; Function Attrs: mustprogress nounwind uwtable
define hidden noundef zeroext i1 @_ZN14ArchiveBuilder11is_excludedEP5Klass(ptr nocapture noundef nonnull readnone align 8 dereferenceable(1080) %0, ptr noundef %1) local_unnamed_addr #1 align 2 {
  %3 = getelementptr inbounds i8, ptr %1, i64 12
  %4 = load i32, ptr %3, align 4
  %5 = icmp slt i32 %4, 5
  br i1 %5, label %.sink.split, label %6

6:                                                ; preds = %2
  %7 = icmp eq i32 %4, 6
  br i1 %7, label %8, label %17

8:                                                ; preds = %6
  %9 = getelementptr inbounds i8, ptr %1, i64 224
  %10 = load ptr, ptr %9, align 8
  %11 = tail call noundef zeroext i1 @_ZN15MetaspaceShared16is_shared_staticEPv(ptr noundef %10) #19
  br i1 %11, label %17, label %12

12:                                               ; preds = %8
  %13 = getelementptr inbounds i8, ptr %10, i64 12
  %14 = load i32, ptr %13, align 4
  %15 = icmp slt i32 %14, 5
  br i1 %15, label %.sink.split, label %17

.sink.split:                                      ; preds = %12, %2
  %.sink = phi ptr [ %1, %2 ], [ %10, %12 ]
  %16 = tail call noundef zeroext i1 @_ZN22SystemDictionaryShared17is_excluded_classEP13InstanceKlass(ptr noundef nonnull %.sink) #19
  br label %17

17:                                               ; preds = %.sink.split, %12, %6, %8
  %.0 = phi i1 [ false, %8 ], [ false, %6 ], [ false, %12 ], [ %16, %.sink.split ]
  ret i1 %.0
}